; Function Attrs: mustprogress uwtable
define dso_local void @_Z13combine_factsRSt6vectorIP4FactSaIS1_EERKS_IPKS0_SaIS6_EE(ptr nocapture noundef nonnull readonly align 8 dereferenceable(24) %0, ptr nocapture noundef nonnull readonly align 8 dereferenceable(24) %1) local_unnamed_addr #8 {
  %3 = getelementptr inbounds i8, ptr %1, i64 8
  %4 = load ptr, ptr %3, align 8
  %5 = load ptr, ptr %1, align 8
  %.not = icmp eq ptr %4, %5
  br i1 %.not, label %._crit_edge, label %.lr.ph16

.lr.ph16:                                         ; preds = %2
  %6 = getelementptr inbounds i8, ptr %0, i64 8
  br label %7

7:                                                ; preds = %.lr.ph16, %.loopexit
  %8 = phi ptr [ %5, %.lr.ph16 ], [ %36, %.loopexit ]
  %.015 = phi i64 [ 0, %.lr.ph16 ], [ %34, %.loopexit ]
  %9 = getelementptr inbounds ptr, ptr %8, i64 %.015
  %10 = load ptr, ptr %9, align 8
  %11 = load ptr, ptr %6, align 8
  %12 = load ptr, ptr %0, align 8
  %.not17 = icmp eq ptr %11, %12
  br i1 %.not17, label %.loopexit, label %.lr.ph

13:                                               ; preds = %.lr.ph
  %14 = add nuw i64 %.01314, 1
  %15 = load ptr, ptr %6, align 8
  %16 = load ptr, ptr %0, align 8
  %17 = ptrtoint ptr %15 to i64
  %18 = ptrtoint ptr %16 to i64
  %19 = sub i64 %17, %18
  %20 = ashr exact i64 %19, 3
  %21 = icmp ult i64 %14, %20
  br i1 %21, label %.lr.ph, label %.loopexit, !llvm.loop !16

.lr.ph:                                           ; preds = %7, %13
  %22 = phi ptr [ %16, %13 ], [ %12, %7 ]
  %.01314 = phi i64 [ %14, %13 ], [ 0, %7 ]
  %23 = getelementptr inbounds ptr, ptr %22, i64 %.01314
  %24 = load ptr, ptr %23, align 8
  %25 = load ptr, ptr %24, align 8
  %26 = getelementptr inbounds i8, ptr %25, i64 88
  %27 = load ptr, ptr %26, align 8
  %28 = tail call noundef zeroext i1 %27(ptr noundef nonnull align 8 dereferenceable(12) %24, ptr noundef nonnull align 8 dereferenceable(12) %10)
  br i1 %28, label %29, label %13

29:                                               ; preds = %.lr.ph
  %30 = load ptr, ptr %24, align 8
  %31 = getelementptr inbounds i8, ptr %30, i64 32
  %32 = load ptr, ptr %31, align 8
  %33 = tail call noundef i32 %32(ptr noundef nonnull align 8 dereferenceable(12) %24, ptr noundef nonnull align 8 dereferenceable(12) %10)
  br label %.loopexit

.loopexit:                                        ; preds = %13, %7, %29
  %34 = add nuw i64 %.015, 1
  %35 = load ptr, ptr %3, align 8
  %36 = load ptr, ptr %1, align 8
  %37 = ptrtoint ptr %35 to i64
  %38 = ptrtoint ptr %36 to i64
  %39 = sub i64 %37, %38
  %40 = ashr exact i64 %39, 3
  %41 = icmp ult i64 %34, %40
  br i1 %41, label %7, label %._crit_edge, !llvm.loop !17

._crit_edge:                                      ; preds = %.loopexit, %2
  ret void
}